target datalayout = "e-m:e-p270:32:32-p271:32:32-p272:64:64-i64:64-i128:128-f80:128-n8:16:32:64-S128"
target triple = "x86_64-pc-linux-gnu"

@.str.4 = private unnamed_addr constant [2 x i8] c"\0A\00", align 1
@.str.5 = private unnamed_addr constant [33 x i8] c"    check [options] [selection]\0A\00", align 1
@.str.6 = private unnamed_addr constant [68 x i8] c"This pass identifies the following problems in the current design:\0A\00", align 1
@.str.7 = private unnamed_addr constant [25 x i8] c"  - combinatorial loops\0A\00", align 1
@.str.8 = private unnamed_addr constant [50 x i8] c"  - two or more conflicting drivers for one wire\0A\00", align 1
@.str.9 = private unnamed_addr constant [42 x i8] c"  - used wires that do not have a driver\0A\00", align 1
@.str.10 = private unnamed_addr constant [10 x i8] c"Options:\0A\00", align 1
@.str.11 = private unnamed_addr constant [13 x i8] c"    -noinit\0A\00", align 1
@.str.12 = private unnamed_addr constant [66 x i8] c"        also check for wires which have the 'init' attribute set\0A\00", align 1
@.str.13 = private unnamed_addr constant [14 x i8] c"    -initdrv\0A\00", align 1
@.str.14 = private unnamed_addr constant [77 x i8] c"        also check for wires that have the 'init' attribute set and are not\0A\00", align 1
@.str.15 = private unnamed_addr constant [35 x i8] c"        driven by an FF cell type\0A\00", align 1
@.str.16 = private unnamed_addr constant [13 x i8] c"    -mapped\0A\00", align 1
@.str.17 = private unnamed_addr constant [81 x i8] c"        also check for internal cells that have not been mapped to cells of the\0A\00", align 1
@.str.18 = private unnamed_addr constant [29 x i8] c"        target architecture\0A\00", align 1
@.str.19 = private unnamed_addr constant [17 x i8] c"    -allow-tbuf\0A\00", align 1
@.str.20 = private unnamed_addr constant [66 x i8] c"        modify the -mapped behavior to still allow $_TBUF_ cells\0A\00", align 1
@.str.21 = private unnamed_addr constant [13 x i8] c"    -assert\0A\00", align 1
@.str.22 = private unnamed_addr constant [81 x i8] c"        produce a runtime error if any problems are found in the current design\0A\00", align 1
@.str.23 = private unnamed_addr constant [32 x i8] c"    -force-detailed-loop-check\0A\00", align 1
@.str.24 = private unnamed_addr constant [79 x i8] c"        for the detection of combinatorial loops, use a detailed connectivity\0A\00", align 1
@.str.25 = private unnamed_addr constant [79 x i8] c"        model for all internal cells for which it is available. This disables\0A\00", align 1
@.str.26 = private unnamed_addr constant [79 x i8] c"        falling back to a simpler overapproximating model for those cells for\0A\00", align 1
@.str.27 = private unnamed_addr constant [54 x i8] c"        which the detailed model is expected costly.\0A\00", align 1

; Function Attrs: mustprogress uwtable
define internal void @_ZN12_GLOBAL__N_19CheckPass4helpEv(ptr noundef nonnull align 8 dereferenceable(104) %0) unnamed_addr #4 align 2 {
  %2 = alloca ptr, align 8
  store ptr %0, ptr %2, align 8, !tbaa !6
  call void (ptr, ...) @_ZN5Yosys3logEPKcz(ptr noundef @.str.4)
  call void (ptr, ...) @_ZN5Yosys3logEPKcz(ptr noundef @.str.5)
  call void (ptr, ...) @_ZN5Yosys3logEPKcz(ptr noundef @.str.4)
  call void (ptr, ...) @_ZN5Yosys3logEPKcz(ptr noundef @.str.6)
  call void (ptr, ...) @_ZN5Yosys3logEPKcz(ptr noundef @.str.4)
  call void (ptr, ...) @_ZN5Yosys3logEPKcz(ptr noundef @.str.7)
  call void (ptr, ...) @_ZN5Yosys3logEPKcz(ptr noundef @.str.8)
  call void (ptr, ...) @_ZN5Yosys3logEPKcz(ptr noundef @.str.9)
  call void (ptr, ...) @_ZN5Yosys3logEPKcz(ptr noundef @.str.4)
  call void (ptr, ...) @_ZN5Yosys3logEPKcz(ptr noundef @.str.10)
  call void (ptr, ...) @_ZN5Yosys3logEPKcz(ptr noundef @.str.4)
  call void (ptr, ...) @_ZN5Yosys3logEPKcz(ptr noundef @.str.11)
  call void (ptr, ...) @_ZN5Yosys3logEPKcz(ptr noundef @.str.12)
  call void (ptr, ...) @_ZN5Yosys3logEPKcz(ptr noundef @.str.4)
  call void (ptr, ...) @_ZN5Yosys3logEPKcz(ptr noundef @.str.13)
  call void (ptr, ...) @_ZN5Yosys3logEPKcz(ptr noundef @.str.14)
  call void (ptr, ...) @_ZN5Yosys3logEPKcz(ptr noundef @.str.15)
  call void (ptr, ...) @_ZN5Yosys3logEPKcz(ptr noundef @.str.4)
  call void (ptr, ...) @_ZN5Yosys3logEPKcz(ptr noundef @.str.16)
  call void (ptr, ...) @_ZN5Yosys3logEPKcz(ptr noundef @.str.17)
  call void (ptr, ...) @_ZN5Yosys3logEPKcz(ptr noundef @.str.18)
  call void (ptr, ...) @_ZN5Yosys3logEPKcz(ptr noundef @.str.4)
  call void (ptr, ...) @_ZN5Yosys3logEPKcz(ptr noundef @.str.19)
  call void (ptr, ...) @_ZN5Yosys3logEPKcz(ptr noundef @.str.20)
  call void (ptr, ...) @_ZN5Yosys3logEPKcz(ptr noundef @.str.4)
  call void (ptr, ...) @_ZN5Yosys3logEPKcz(ptr noundef @.str.21)
  call void (ptr, ...) @_ZN5Yosys3logEPKcz(ptr noundef @.str.22)
  call void (ptr, ...) @_ZN5Yosys3logEPKcz(ptr noundef @.str.4)
  call void (ptr, ...) @_ZN5Yosys3logEPKcz(ptr noundef @.str.23)
  call void (ptr, ...) @_ZN5Yosys3logEPKcz(ptr noundef @.str.24)
  call void (ptr, ...) @_ZN5Yosys3logEPKcz(ptr noundef @.str.25)
  call void (ptr, ...) @_ZN5Yosys3logEPKcz(ptr noundef @.str.26)
  call void (ptr, ...) @_ZN5Yosys3logEPKcz(ptr noundef @.str.27)
  call void (ptr, ...) @_ZN5Yosys3logEPKcz(ptr noundef @.str.4)
  ret void
}